; Function Attrs: mustprogress uwtable
define void @_ZN6duckdb12ColumnReader14InitializeReadEmRKNS_6vectorIN14duckdb_parquet11ColumnChunkELb1EEERN13duckdb_apache6thrift8protocol9TProtocolE(ptr noundef nonnull align 8 captures(none) dereferenceable(544) initializes((40, 56)) %0, i64 %1, ptr noundef nonnull align 8 dereferenceable(24) %2, ptr noundef nonnull align 8 dereferenceable(36) %3) unnamed_addr #3 align 2 personality ptr @__gxx_personality_v0 {
  %5 = getelementptr inbounds nuw i8, ptr %0, i64 8
  %6 = load ptr, ptr %5, align 8, !tbaa !235
  %7 = getelementptr inbounds nuw i8, ptr %6, i64 88
  %8 = load i64, ptr %7, align 8, !tbaa !243
  %9 = tail call noundef nonnull align 8 dereferenceable(633) ptr @_ZNK6duckdb6vectorIN14duckdb_parquet11ColumnChunkELb1EEixEm(ptr noundef nonnull align 8 dereferenceable(24) %2, i64 noundef %8)
  %10 = getelementptr inbounds nuw i8, ptr %0, i64 40
  store ptr %9, ptr %10, align 8, !tbaa !87
  %11 = getelementptr inbounds nuw i8, ptr %0, i64 48
  store ptr %3, ptr %11, align 8, !tbaa !259
  %12 = getelementptr inbounds nuw i8, ptr %9, i64 632
  %13 = load i8, ptr %12, align 8
  %14 = trunc i8 %13 to i1
  br i1 %14, label %15, label %20

15:                                               ; preds = %4
  %16 = tail call ptr @__cxa_allocate_exception(i64 16) #28
  invoke void @_ZNSt13runtime_errorC1EPKc(ptr noundef nonnull align 8 dereferenceable(16) %16, ptr noundef nonnull @.str.4)
          to label %17 unwind label %18

17:                                               ; preds = %15
  tail call void @__cxa_throw(ptr nonnull %16, ptr nonnull @_ZTISt13runtime_error, ptr nonnull @_ZNSt13runtime_errorD1Ev) #30
  unreachable

18:                                               ; preds = %15
  %19 = landingpad { ptr, i32 }
          cleanup
  tail call void @__cxa_free_exception(ptr nonnull %16) #28
  resume { ptr, i32 } %19

20:                                               ; preds = %4
  %21 = getelementptr inbounds nuw i8, ptr %9, i64 168
  %22 = load i64, ptr %21, align 8, !tbaa !238
  %23 = getelementptr inbounds nuw i8, ptr %0, i64 72
  store i64 %22, ptr %23, align 8, !tbaa !260
  %24 = getelementptr inbounds nuw i8, ptr %9, i64 464
  %25 = load i8, ptr %24, align 8
  %26 = and i8 %25, 4
  %.not = icmp eq i8 %26, 0
  br i1 %.not, label %32, label %27

27:                                               ; preds = %20
  %28 = getelementptr inbounds nuw i8, ptr %9, i64 184
  %29 = load i64, ptr %28, align 8, !tbaa !236
  %30 = icmp sgt i64 %29, 3
  br i1 %30, label %31, label %32

31:                                               ; preds = %27
  store i64 %29, ptr %23, align 8, !tbaa !260
  br label %32

32:                                               ; preds = %31, %27, %20
  %33 = getelementptr inbounds nuw i8, ptr %9, i64 120
  %34 = load i64, ptr %33, align 8, !tbaa !261
  %35 = getelementptr inbounds nuw i8, ptr %0, i64 64
  store i64 %34, ptr %35, align 8, !tbaa !239
  ret void
}